; Function Attrs: null_pointer_is_valid sspstrong uwtable
define internal noundef i32 @dissect_aim_bos_buddyname(ptr noundef %0, ptr noundef readonly captures(none) %1, ptr noundef %2) #0 {
  %4 = tail call i32 @tvb_reported_length_remaining(ptr noundef %0, i32 noundef 0)
  %5 = icmp sgt i32 %4, 0
  br i1 %5, label %.lr.ph, label %._crit_edge

.lr.ph:                                           ; preds = %3, %.lr.ph
  %.06 = phi i32 [ %6, %.lr.ph ], [ 0, %3 ]
  %6 = tail call fastcc i32 @dissect_aim_buddyname(ptr noundef %0, ptr noundef %1, i32 noundef %.06, ptr noundef %2)
  %7 = tail call i32 @tvb_reported_length_remaining(ptr noundef %0, i32 noundef %6)
  %8 = icmp sgt i32 %7, 0
  br i1 %8, label %.lr.ph, label %._crit_edge, !llvm.loop !15

._crit_edge:                                      ; preds = %.lr.ph, %3
  %.0.lcssa = phi i32 [ 0, %3 ], [ %6, %.lr.ph ]
  ret i32 %.0.lcssa
}